target datalayout = "e-m:e-p270:32:32-p271:32:32-p272:64:64-i64:64-i128:128-f80:128-n8:16:32:64-S128"
target triple = "x86_64-pc-linux-gnu"

%"class.gmx::CorrelationTensor" = type { %"class.std::vector" }
%"class.std::vector" = type { %"struct.std::_Vector_base" }
%"struct.std::_Vector_base" = type { %"struct.std::_Vector_base<gmx::CorrelationBlockData, std::allocator<gmx::CorrelationBlockData>>::_Vector_impl" }
%"struct.std::_Vector_base<gmx::CorrelationBlockData, std::allocator<gmx::CorrelationBlockData>>::_Vector_impl" = type { %"struct.std::_Vector_base<gmx::CorrelationBlockData, std::allocator<gmx::CorrelationBlockData>>::_Vector_impl_data" }
%"struct.std::_Vector_base<gmx::CorrelationBlockData, std::allocator<gmx::CorrelationBlockData>>::_Vector_impl_data" = type { ptr, ptr, ptr }
%"class.gmx::CorrelationBlockData" = type { double, double, double, double, double, i32, %"class.std::vector.0", %"class.std::vector.5" }
%"class.std::vector.0" = type { %"struct.std::_Vector_base.1" }
%"struct.std::_Vector_base.1" = type { %"struct.std::_Vector_base<gmx::CorrelationBlockData::CoordData, std::allocator<gmx::CorrelationBlockData::CoordData>>::_Vector_impl" }
%"struct.std::_Vector_base<gmx::CorrelationBlockData::CoordData, std::allocator<gmx::CorrelationBlockData::CoordData>>::_Vector_impl" = type { %"struct.std::_Vector_base<gmx::CorrelationBlockData::CoordData, std::allocator<gmx::CorrelationBlockData::CoordData>>::_Vector_impl_data" }
%"struct.std::_Vector_base<gmx::CorrelationBlockData::CoordData, std::allocator<gmx::CorrelationBlockData::CoordData>>::_Vector_impl_data" = type { ptr, ptr, ptr }
%"class.std::vector.5" = type { %"struct.std::_Vector_base.6" }
%"struct.std::_Vector_base.6" = type { %"struct.std::_Vector_base<double, std::allocator<double>>::_Vector_impl" }
%"struct.std::_Vector_base<double, std::allocator<double>>::_Vector_impl" = type { %"struct.std::_Vector_base<double, std::allocator<double>>::_Vector_impl_data" }
%"struct.std::_Vector_base<double, std::allocator<double>>::_Vector_impl_data" = type { ptr, ptr, ptr }
%"class.__gnu_cxx::__normal_iterator.13" = type { ptr }
%class.anon = type { i8 }

@.str.1 = private unnamed_addr constant [60 x i8] c"numBlockData < static_cast<int>(sizeof(scaling) * CHAR_BIT)\00", align 1
@.str.2 = private unnamed_addr constant [66 x i8] c"numBlockData should we smaller than the number of bits in scaling\00", align 1
@"__PRETTY_FUNCTION__._ZZN3gmx17CorrelationTensorC1EiidENK3$_0clEv" = private unnamed_addr constant [104 x i8] c"auto gmx::CorrelationTensor::CorrelationTensor(int, int, double)::(anonymous class)::operator()() const\00", align 1
@.str.3 = private unnamed_addr constant [146 x i8] c"generated/home/dtcxzyw/WorkSpace/Projects/compilers/llvm-opt-benchmark/bench/gromacs/gromacs/src/gromacs/applied_forces/awh/correlationtensor.cpp\00", align 1

; Function Attrs: mustprogress nounwind uwtable
define linkonce_odr void @_ZNSt15__new_allocatorIN3gmx20CorrelationBlockDataEEC2Ev(ptr noundef nonnull align 1 dereferenceable(1) %0) unnamed_addr #2 comdat align 2 {
  %2 = alloca ptr, align 8
  store ptr %0, ptr %2, align 8, !tbaa !145
  ret void
}

; Function Attrs: mustprogress nounwind uwtable
define linkonce_odr void @_ZNSt12_Vector_baseIN3gmx20CorrelationBlockDataESaIS1_EE17_Vector_impl_dataC2Ev(ptr noundef nonnull align 8 dereferenceable(24) %0) unnamed_addr #2 comdat align 2 {
  %2 = alloca ptr, align 8
  store ptr %0, ptr %2, align 8, !tbaa !143
  %3 = load ptr, ptr %2, align 8
  %4 = getelementptr inbounds nuw %"struct.std::_Vector_base<gmx::CorrelationBlockData, std::allocator<gmx::CorrelationBlockData>>::_Vector_impl_data", ptr %3, i32 0, i32 0
  store ptr null, ptr %4, align 8, !tbaa !28
  %5 = getelementptr inbounds nuw %"struct.std::_Vector_base<gmx::CorrelationBlockData, std::allocator<gmx::CorrelationBlockData>>::_Vector_impl_data", ptr %3, i32 0, i32 1
  store ptr null, ptr %5, align 8, !tbaa !58
  %6 = getelementptr inbounds nuw %"struct.std::_Vector_base<gmx::CorrelationBlockData, std::allocator<gmx::CorrelationBlockData>>::_Vector_impl_data", ptr %3, i32 0, i32 2
  store ptr null, ptr %6, align 8, !tbaa !136
  ret void
}

; Function Attrs: mustprogress nounwind uwtable
define linkonce_odr void @_ZNSaIN3gmx20CorrelationBlockDataEEC2Ev(ptr noundef nonnull align 1 dereferenceable(1) %0) unnamed_addr #2 comdat align 2 {
  %2 = alloca ptr, align 8
  store ptr %0, ptr %2, align 8, !tbaa !141
  %3 = load ptr, ptr %2, align 8
  call void @_ZNSt15__new_allocatorIN3gmx20CorrelationBlockDataEEC2Ev(ptr noundef nonnull align 1 dereferenceable(1) %3) #15
  ret void
}

; Function Attrs: mustprogress nounwind uwtable
define linkonce_odr noundef nonnull align 8 dereferenceable(96) ptr @_ZNK9__gnu_cxx17__normal_iteratorIPN3gmx20CorrelationBlockDataESt6vectorIS2_SaIS2_EEEdeEv(ptr noundef nonnull align 8 dereferenceable(8) %0) #2 comdat align 2 {
  %2 = alloca ptr, align 8
  store ptr %0, ptr %2, align 8, !tbaa !108
  %3 = load ptr, ptr %2, align 8
  %4 = getelementptr inbounds nuw %"class.__gnu_cxx::__normal_iterator.13", ptr %3, i32 0, i32 0
  %5 = load ptr, ptr %4, align 8, !tbaa !110
  ret ptr %5
}

; Function Attrs: mustprogress nounwind uwtable
define linkonce_odr ptr @_ZNK9__gnu_cxx17__normal_iteratorIPN3gmx20CorrelationBlockDataESt6vectorIS2_SaIS2_EEEmiEl(ptr noundef nonnull align 8 dereferenceable(8) %0, i64 noundef %1) #2 comdat align 2 {
  %3 = alloca %"class.__gnu_cxx::__normal_iterator.13", align 8
  %4 = alloca ptr, align 8
  %5 = alloca i64, align 8
  %6 = alloca ptr, align 8
  store ptr %0, ptr %4, align 8, !tbaa !108
  store i64 %1, ptr %5, align 8, !tbaa !13
  %7 = load ptr, ptr %4, align 8
  call void @llvm.lifetime.start.p0(i64 8, ptr %6) #15
  %8 = getelementptr inbounds nuw %"class.__gnu_cxx::__normal_iterator.13", ptr %7, i32 0, i32 0
  %9 = load ptr, ptr %8, align 8, !tbaa !110
  %10 = load i64, ptr %5, align 8, !tbaa !13
  %11 = sub i64 0, %10
  %12 = getelementptr inbounds %"class.gmx::CorrelationBlockData", ptr %9, i64 %11
  store ptr %12, ptr %6, align 8, !tbaa !24
  call void @_ZN9__gnu_cxx17__normal_iteratorIPN3gmx20CorrelationBlockDataESt6vectorIS2_SaIS2_EEEC2ERKS3_(ptr noundef nonnull align 8 dereferenceable(8) %3, ptr noundef nonnull align 8 dereferenceable(8) %6) #15
  call void @llvm.lifetime.end.p0(i64 8, ptr %6) #15
  %13 = getelementptr inbounds nuw %"class.__gnu_cxx::__normal_iterator.13", ptr %3, i32 0, i32 0
  %14 = load ptr, ptr %13, align 8
  ret ptr %14
}

; Function Attrs: mustprogress nounwind uwtable
define linkonce_odr void @_ZN9__gnu_cxx17__normal_iteratorIPN3gmx20CorrelationBlockDataESt6vectorIS2_SaIS2_EEEC2ERKS3_(ptr noundef nonnull align 8 dereferenceable(8) %0, ptr noundef nonnull align 8 dereferenceable(8) %1) unnamed_addr #2 comdat align 2 {
  %3 = alloca ptr, align 8
  %4 = alloca ptr, align 8
  store ptr %0, ptr %3, align 8, !tbaa !108
  store ptr %1, ptr %4, align 8, !tbaa !112
  %5 = load ptr, ptr %3, align 8
  %6 = getelementptr inbounds nuw %"class.__gnu_cxx::__normal_iterator.13", ptr %5, i32 0, i32 0
  %7 = load ptr, ptr %4, align 8, !tbaa !112
  %8 = load ptr, ptr %7, align 8, !tbaa !24
  store ptr %8, ptr %6, align 8, !tbaa !110
  ret void
}

; Function Attrs: mustprogress uwtable
define linkonce_odr void @_ZNSt15__new_allocatorIN3gmx20CorrelationBlockDataEE9constructIS1_JRidEEEvPT_DpOT0_(ptr noundef nonnull align 1 dereferenceable(1) %0, ptr noundef %1, ptr noundef nonnull align 4 dereferenceable(4) %2, ptr noundef nonnull align 8 dereferenceable(8) %3) #0 comdat align 2 {
  %5 = alloca ptr, align 8
  %6 = alloca ptr, align 8
  %7 = alloca ptr, align 8
  %8 = alloca ptr, align 8
  store ptr %0, ptr %5, align 8, !tbaa !145
  store ptr %1, ptr %6, align 8, !tbaa !24
  store ptr %2, ptr %7, align 8, !tbaa !134
  store ptr %3, ptr %8, align 8, !tbaa !52
  %9 = load ptr, ptr %6, align 8, !tbaa !24
  %10 = load ptr, ptr %7, align 8, !tbaa !134
  %11 = load i32, ptr %10, align 4, !tbaa !8
  %12 = load ptr, ptr %8, align 8, !tbaa !52
  %13 = load double, ptr %12, align 8, !tbaa !4
  call void @_ZN3gmx20CorrelationBlockDataC2Eid(ptr noundef nonnull align 8 dereferenceable(96) %9, i32 noundef %11, double noundef %13)
  ret void
}

; Function Attrs: mustprogress nounwind uwtable
define linkonce_odr void @_ZNSt12_Vector_baseIN3gmx20CorrelationBlockDataESaIS1_EE12_Vector_implC2Ev(ptr noundef nonnull align 8 dereferenceable(24) %0) unnamed_addr #2 comdat align 2 {
  %2 = alloca ptr, align 8
  store ptr %0, ptr %2, align 8, !tbaa !139
  %3 = load ptr, ptr %2, align 8
  call void @_ZNSaIN3gmx20CorrelationBlockDataEEC2Ev(ptr noundef nonnull align 1 dereferenceable(1) %3) #15
  call void @_ZNSt12_Vector_baseIN3gmx20CorrelationBlockDataESaIS1_EE17_Vector_impl_dataC2Ev(ptr noundef nonnull align 8 dereferenceable(24) %3) #15
  ret void
}

; Function Attrs: mustprogress nounwind uwtable
define linkonce_odr noundef nonnull align 8 dereferenceable(96) ptr @_ZNSt6vectorIN3gmx20CorrelationBlockDataESaIS1_EE4backEv(ptr noundef nonnull align 8 dereferenceable(24) %0) #2 comdat align 2 {
  %2 = alloca ptr, align 8
  %3 = alloca %"class.__gnu_cxx::__normal_iterator.13", align 8
  %4 = alloca %"class.__gnu_cxx::__normal_iterator.13", align 8
  store ptr %0, ptr %2, align 8, !tbaa !26
  %5 = load ptr, ptr %2, align 8
  call void @llvm.lifetime.start.p0(i64 8, ptr %3) #15
  call void @llvm.lifetime.start.p0(i64 8, ptr %4) #15
  %6 = call ptr @_ZNSt6vectorIN3gmx20CorrelationBlockDataESaIS1_EE3endEv(ptr noundef nonnull align 8 dereferenceable(24) %5) #15
  %7 = getelementptr inbounds nuw %"class.__gnu_cxx::__normal_iterator.13", ptr %4, i32 0, i32 0
  store ptr %6, ptr %7, align 8
  %8 = call ptr @_ZNK9__gnu_cxx17__normal_iteratorIPN3gmx20CorrelationBlockDataESt6vectorIS2_SaIS2_EEEmiEl(ptr noundef nonnull align 8 dereferenceable(8) %4, i64 noundef 1) #15
  %9 = getelementptr inbounds nuw %"class.__gnu_cxx::__normal_iterator.13", ptr %3, i32 0, i32 0
  store ptr %8, ptr %9, align 8
  %10 = call noundef nonnull align 8 dereferenceable(96) ptr @_ZNK9__gnu_cxx17__normal_iteratorIPN3gmx20CorrelationBlockDataESt6vectorIS2_SaIS2_EEEdeEv(ptr noundef nonnull align 8 dereferenceable(8) %3) #15
  call void @llvm.lifetime.end.p0(i64 8, ptr %4) #15
  call void @llvm.lifetime.end.p0(i64 8, ptr %3) #15
  ret ptr %10
}

; Function Attrs: mustprogress nounwind uwtable
define linkonce_odr ptr @_ZNSt6vectorIN3gmx20CorrelationBlockDataESaIS1_EE3endEv(ptr noundef nonnull align 8 dereferenceable(24) %0) #2 comdat align 2 {
  %2 = alloca %"class.__gnu_cxx::__normal_iterator.13", align 8
  %3 = alloca ptr, align 8
  store ptr %0, ptr %3, align 8, !tbaa !26
  %4 = load ptr, ptr %3, align 8
  %5 = getelementptr inbounds nuw %"struct.std::_Vector_base", ptr %4, i32 0, i32 0
  %6 = getelementptr inbounds nuw %"struct.std::_Vector_base<gmx::CorrelationBlockData, std::allocator<gmx::CorrelationBlockData>>::_Vector_impl_data", ptr %5, i32 0, i32 1
  call void @_ZN9__gnu_cxx17__normal_iteratorIPN3gmx20CorrelationBlockDataESt6vectorIS2_SaIS2_EEEC2ERKS3_(ptr noundef nonnull align 8 dereferenceable(8) %2, ptr noundef nonnull align 8 dereferenceable(8) %6) #15
  %7 = getelementptr inbounds nuw %"class.__gnu_cxx::__normal_iterator.13", ptr %2, i32 0, i32 0
  %8 = load ptr, ptr %7, align 8
  ret ptr %8
}

; Function Attrs: mustprogress uwtable
define linkonce_odr void @_ZNSt16allocator_traitsISaIN3gmx20CorrelationBlockDataEEE9constructIS1_JRidEEEvRS2_PT_DpOT0_(ptr noundef nonnull align 1 dereferenceable(1) %0, ptr noundef %1, ptr noundef nonnull align 4 dereferenceable(4) %2, ptr noundef nonnull align 8 dereferenceable(8) %3) #0 comdat align 2 {
  %5 = alloca ptr, align 8
  %6 = alloca ptr, align 8
  %7 = alloca ptr, align 8
  %8 = alloca ptr, align 8
  store ptr %0, ptr %5, align 8, !tbaa !141
  store ptr %1, ptr %6, align 8, !tbaa !24
  store ptr %2, ptr %7, align 8, !tbaa !134
  store ptr %3, ptr %8, align 8, !tbaa !52
  %9 = load ptr, ptr %5, align 8, !tbaa !141
  %10 = load ptr, ptr %6, align 8, !tbaa !24
  %11 = load ptr, ptr %7, align 8, !tbaa !134
  %12 = load ptr, ptr %8, align 8, !tbaa !52
  call void @_ZNSt15__new_allocatorIN3gmx20CorrelationBlockDataEE9constructIS1_JRidEEEvPT_DpOT0_(ptr noundef nonnull align 1 dereferenceable(1) %9, ptr noundef %10, ptr noundef nonnull align 4 dereferenceable(4) %11, ptr noundef nonnull align 8 dereferenceable(8) %12)
  ret void
}

; Function Attrs: mustprogress nounwind uwtable
define linkonce_odr void @_ZNSt12_Vector_baseIN3gmx20CorrelationBlockDataESaIS1_EEC2Ev(ptr noundef nonnull align 8 dereferenceable(24) %0) unnamed_addr #2 comdat align 2 {
  %2 = alloca ptr, align 8
  store ptr %0, ptr %2, align 8, !tbaa !137
  %3 = load ptr, ptr %2, align 8
  %4 = getelementptr inbounds nuw %"struct.std::_Vector_base", ptr %3, i32 0, i32 0
  call void @_ZNSt12_Vector_baseIN3gmx20CorrelationBlockDataESaIS1_EE12_Vector_implC2Ev(ptr noundef nonnull align 8 dereferenceable(24) %4) #15
  ret void
}

; Function Attrs: mustprogress uwtable
define linkonce_odr noundef nonnull align 8 dereferenceable(96) ptr @_ZNSt6vectorIN3gmx20CorrelationBlockDataESaIS1_EE12emplace_backIJRidEEERS1_DpOT_(ptr noundef nonnull align 8 dereferenceable(24) %0, ptr noundef nonnull align 4 dereferenceable(4) %1, ptr noundef nonnull align 8 dereferenceable(8) %2) #0 comdat align 2 {
  %4 = alloca ptr, align 8
  %5 = alloca ptr, align 8
  %6 = alloca ptr, align 8
  %7 = alloca %"class.__gnu_cxx::__normal_iterator.13", align 8
  store ptr %0, ptr %4, align 8, !tbaa !26
  store ptr %1, ptr %5, align 8, !tbaa !134
  store ptr %2, ptr %6, align 8, !tbaa !52
  %8 = load ptr, ptr %4, align 8
  %9 = getelementptr inbounds nuw %"struct.std::_Vector_base", ptr %8, i32 0, i32 0
  %10 = getelementptr inbounds nuw %"struct.std::_Vector_base<gmx::CorrelationBlockData, std::allocator<gmx::CorrelationBlockData>>::_Vector_impl_data", ptr %9, i32 0, i32 1
  %11 = load ptr, ptr %10, align 8, !tbaa !58
  %12 = getelementptr inbounds nuw %"struct.std::_Vector_base", ptr %8, i32 0, i32 0
  %13 = getelementptr inbounds nuw %"struct.std::_Vector_base<gmx::CorrelationBlockData, std::allocator<gmx::CorrelationBlockData>>::_Vector_impl_data", ptr %12, i32 0, i32 2
  %14 = load ptr, ptr %13, align 8, !tbaa !136
  %15 = icmp ne ptr %11, %14
  br i1 %15, label %16, label %27

16:                                               ; preds = %3
  %17 = getelementptr inbounds nuw %"struct.std::_Vector_base", ptr %8, i32 0, i32 0
  %18 = getelementptr inbounds nuw %"struct.std::_Vector_base", ptr %8, i32 0, i32 0
  %19 = getelementptr inbounds nuw %"struct.std::_Vector_base<gmx::CorrelationBlockData, std::allocator<gmx::CorrelationBlockData>>::_Vector_impl_data", ptr %18, i32 0, i32 1
  %20 = load ptr, ptr %19, align 8, !tbaa !58
  %21 = load ptr, ptr %5, align 8, !tbaa !134
  %22 = load ptr, ptr %6, align 8, !tbaa !52
  call void @_ZNSt16allocator_traitsISaIN3gmx20CorrelationBlockDataEEE9constructIS1_JRidEEEvRS2_PT_DpOT0_(ptr noundef nonnull align 1 dereferenceable(1) %17, ptr noundef %20, ptr noundef nonnull align 4 dereferenceable(4) %21, ptr noundef nonnull align 8 dereferenceable(8) %22)
  %23 = getelementptr inbounds nuw %"struct.std::_Vector_base", ptr %8, i32 0, i32 0
  %24 = getelementptr inbounds nuw %"struct.std::_Vector_base<gmx::CorrelationBlockData, std::allocator<gmx::CorrelationBlockData>>::_Vector_impl_data", ptr %23, i32 0, i32 1
  %25 = load ptr, ptr %24, align 8, !tbaa !58
  %26 = getelementptr inbounds nuw %"class.gmx::CorrelationBlockData", ptr %25, i32 1
  store ptr %26, ptr %24, align 8, !tbaa !58
  br label %34

27:                                               ; preds = %3
  %28 = call ptr @_ZNSt6vectorIN3gmx20CorrelationBlockDataESaIS1_EE3endEv(ptr noundef nonnull align 8 dereferenceable(24) %8) #15
  %29 = getelementptr inbounds nuw %"class.__gnu_cxx::__normal_iterator.13", ptr %7, i32 0, i32 0
  store ptr %28, ptr %29, align 8
  %30 = load ptr, ptr %5, align 8, !tbaa !134
  %31 = load ptr, ptr %6, align 8, !tbaa !52
  %32 = getelementptr inbounds nuw %"class.__gnu_cxx::__normal_iterator.13", ptr %7, i32 0, i32 0
  %33 = load ptr, ptr %32, align 8
  call void @_ZNSt6vectorIN3gmx20CorrelationBlockDataESaIS1_EE17_M_realloc_insertIJRidEEEvN9__gnu_cxx17__normal_iteratorIPS1_S3_EEDpOT_(ptr noundef nonnull align 8 dereferenceable(24) %8, ptr %33, ptr noundef nonnull align 4 dereferenceable(4) %30, ptr noundef nonnull align 8 dereferenceable(8) %31)
  br label %34

34:                                               ; preds = %27, %16
  %35 = call noundef nonnull align 8 dereferenceable(96) ptr @_ZNSt6vectorIN3gmx20CorrelationBlockDataESaIS1_EE4backEv(ptr noundef nonnull align 8 dereferenceable(24) %8) #15
  ret ptr %35
}

; Function Attrs: inlinehint mustprogress uwtable
define internal void @"_ZZN3gmx17CorrelationTensorC1EiidENK3$_0clEv"(ptr noundef nonnull align 1 dereferenceable(1) %0) #8 align 2 {
  %2 = alloca ptr, align 8
  store ptr %0, ptr %2, align 8, !tbaa !74
  call void @_ZN3gmx8internal13assertHandlerEPKcS2_S2_S2_i(ptr noundef @.str.1, ptr noundef @.str.2, ptr noundef @"__PRETTY_FUNCTION__._ZZN3gmx17CorrelationTensorC1EiidENK3$_0clEv", ptr noundef @.str.3, i32 noundef 295) #16
  unreachable
}

; Function Attrs: mustprogress nounwind uwtable
define linkonce_odr void @_ZNSt6vectorIN3gmx20CorrelationBlockDataESaIS1_EEC2Ev(ptr noundef nonnull align 8 dereferenceable(24) %0) unnamed_addr #2 comdat align 2 {
  %2 = alloca ptr, align 8
  store ptr %0, ptr %2, align 8, !tbaa !26
  %3 = load ptr, ptr %2, align 8
  call void @_ZNSt12_Vector_baseIN3gmx20CorrelationBlockDataESaIS1_EEC2Ev(ptr noundef nonnull align 8 dereferenceable(24) %3) #15
  ret void
}

; Function Attrs: mustprogress uwtable
define void @_ZN3gmx17CorrelationTensorC2Eiid(ptr noundef nonnull align 8 dereferenceable(24) %0, i32 noundef %1, i32 noundef %2, double noundef %3) unnamed_addr #0 align 2 personality ptr @__gxx_personality_v0 {
  %5 = alloca ptr, align 8
  %6 = alloca i32, align 4
  %7 = alloca i32, align 4
  %8 = alloca double, align 8
  %9 = alloca i32, align 4
  %10 = alloca %class.anon, align 1
  %11 = alloca ptr, align 8
  %12 = alloca i32, align 4
  %13 = alloca i32, align 4
  %14 = alloca double, align 8
  store ptr %0, ptr %5, align 8, !tbaa !22
  store i32 %1, ptr %6, align 4, !tbaa !8
  store i32 %2, ptr %7, align 4, !tbaa !8
  store double %3, ptr %8, align 8, !tbaa !4
  %15 = load ptr, ptr %5, align 8
  %16 = getelementptr inbounds nuw %"class.gmx::CorrelationTensor", ptr %15, i32 0, i32 0
  call void @_ZNSt6vectorIN3gmx20CorrelationBlockDataESaIS1_EEC2Ev(ptr noundef nonnull align 8 dereferenceable(24) %16) #15
  call void @llvm.lifetime.start.p0(i64 4, ptr %9) #15
  store i32 1, ptr %9, align 4, !tbaa !8
  %17 = load i32, ptr %7, align 4, !tbaa !8
  %18 = icmp slt i32 %17, 32
  call void @llvm.lifetime.start.p0(i64 1, ptr %10) #15
  br i1 %18, label %19, label %20

19:                                               ; preds = %4
  br label %22

20:                                               ; preds = %4
  invoke void @"_ZZN3gmx17CorrelationTensorC1EiidENK3$_0clEv"(ptr noundef nonnull align 1 dereferenceable(1) %10)
          to label %21 unwind label %28

21:                                               ; preds = %20
  br label %22

22:                                               ; preds = %21, %19
  call void @llvm.lifetime.end.p0(i64 1, ptr %10) #15
  call void @llvm.lifetime.start.p0(i64 4, ptr %13) #15
  store i32 0, ptr %13, align 4, !tbaa !8
  br label %23

23:                                               ; preds = %42, %22
  %24 = load i32, ptr %13, align 4, !tbaa !8
  %25 = load i32, ptr %7, align 4, !tbaa !8
  %26 = icmp slt i32 %24, %25
  br i1 %26, label %32, label %27

27:                                               ; preds = %23
  call void @llvm.lifetime.end.p0(i64 4, ptr %13) #15
  br label %49

28:                                               ; preds = %20
  %29 = landingpad { ptr, i32 }
          cleanup
  %30 = extractvalue { ptr, i32 } %29, 0
  store ptr %30, ptr %11, align 8
  %31 = extractvalue { ptr, i32 } %29, 1
  store i32 %31, ptr %12, align 4
  call void @llvm.lifetime.end.p0(i64 1, ptr %10) #15
  br label %50

32:                                               ; preds = %23
  %33 = getelementptr inbounds nuw %"class.gmx::CorrelationTensor", ptr %15, i32 0, i32 0
  call void @llvm.lifetime.start.p0(i64 8, ptr %14) #15
  %34 = load i32, ptr %9, align 4, !tbaa !8
  %35 = uitofp i32 %34 to double
  %36 = load double, ptr %8, align 8, !tbaa !4
  %37 = fmul double %35, %36
  store double %37, ptr %14, align 8, !tbaa !4
  %38 = invoke noundef nonnull align 8 dereferenceable(96) ptr @_ZNSt6vectorIN3gmx20CorrelationBlockDataESaIS1_EE12emplace_backIJRidEEERS1_DpOT_(ptr noundef nonnull align 8 dereferenceable(24) %33, ptr noundef nonnull align 4 dereferenceable(4) %6, ptr noundef nonnull align 8 dereferenceable(8) %14)
          to label %39 unwind label %45

39:                                               ; preds = %32
  call void @llvm.lifetime.end.p0(i64 8, ptr %14) #15
  %40 = load i32, ptr %9, align 4, !tbaa !8
  %41 = shl i32 %40, 1
  store i32 %41, ptr %9, align 4, !tbaa !8
  br label %42

42:                                               ; preds = %39
  %43 = load i32, ptr %13, align 4, !tbaa !8
  %44 = add nsw i32 %43, 1
  store i32 %44, ptr %13, align 4, !tbaa !8
  br label %23, !llvm.loop !133

45:                                               ; preds = %32
  %46 = landingpad { ptr, i32 }
          cleanup
  %47 = extractvalue { ptr, i32 } %46, 0
  store ptr %47, ptr %11, align 8
  %48 = extractvalue { ptr, i32 } %46, 1
  store i32 %48, ptr %12, align 4
  call void @llvm.lifetime.end.p0(i64 8, ptr %14) #15
  call void @llvm.lifetime.end.p0(i64 4, ptr %13) #15
  br label %50

49:                                               ; preds = %27
  call void @llvm.lifetime.end.p0(i64 4, ptr %9) #15
  ret void

50:                                               ; preds = %45, %28
  call void @llvm.lifetime.end.p0(i64 4, ptr %9) #15
  call void @_ZNSt6vectorIN3gmx20CorrelationBlockDataESaIS1_EED2Ev(ptr noundef nonnull align 8 dereferenceable(24) %16) #15
  br label %51

51:                                               ; preds = %50
  %52 = load ptr, ptr %11, align 8
  %53 = load i32, ptr %12, align 4
  %54 = insertvalue { ptr, i32 } poison, ptr %52, 0
  %55 = insertvalue { ptr, i32 } %54, i32 %53, 1
  resume { ptr, i32 } %55
}