; Function Attrs: mustprogress uwtable
define void @_ZN3gmx17CorrelationTensorC2Eiid(ptr noundef nonnull align 8 dereferenceable(24) initializes((0, 24)) %0, i32 noundef %1, i32 noundef %2, double noundef %3) unnamed_addr #7 align 2 personality ptr @__gxx_personality_v0 {
  %5 = alloca i32, align 4
  %6 = alloca double, align 8
  store i32 %1, ptr %5, align 4, !tbaa !8
  tail call void @llvm.memset.p0.i64(ptr noundef nonnull align 8 dereferenceable(24) %0, i8 0, i64 24, i1 false)
  %7 = icmp slt i32 %2, 32
  br i1 %7, label %.preheader, label %11

.preheader:                                       ; preds = %4
  %8 = icmp sgt i32 %2, 0
  br i1 %8, label %.lr.ph, label %._crit_edge

.lr.ph:                                           ; preds = %.preheader
  %9 = getelementptr inbounds nuw i8, ptr %0, i64 8
  %10 = getelementptr inbounds nuw i8, ptr %0, i64 16
  br label %14

11:                                               ; preds = %4
  invoke void @_ZN3gmx8internal13assertHandlerEPKcS2_S2_S2_i(ptr noundef nonnull @.str.1, ptr noundef nonnull @.str.2, ptr noundef nonnull @"__PRETTY_FUNCTION__._ZZN3gmx17CorrelationTensorC1EiidENK3$_0clEv", ptr noundef nonnull @.str.3, i32 noundef 295) #20
          to label %.noexc unwind label %12

.noexc:                                           ; preds = %11
  unreachable

._crit_edge:                                      ; preds = %_ZNSt6vectorIN3gmx20CorrelationBlockDataESaIS1_EE12emplace_backIJRidEEERS1_DpOT_.exit, %.preheader
  ret void

12:                                               ; preds = %11
  %13 = landingpad { ptr, i32 }
          cleanup
  br label %28

14:                                               ; preds = %.lr.ph, %_ZNSt6vectorIN3gmx20CorrelationBlockDataESaIS1_EE12emplace_backIJRidEEERS1_DpOT_.exit
  %.016 = phi i32 [ 0, %.lr.ph ], [ %25, %_ZNSt6vectorIN3gmx20CorrelationBlockDataESaIS1_EE12emplace_backIJRidEEERS1_DpOT_.exit ]
  %.01115 = phi i32 [ 1, %.lr.ph ], [ %24, %_ZNSt6vectorIN3gmx20CorrelationBlockDataESaIS1_EE12emplace_backIJRidEEERS1_DpOT_.exit ]
  call void @llvm.lifetime.start.p0(i64 8, ptr nonnull %6) #19
  %15 = uitofp i32 %.01115 to double
  %16 = fmul double %3, %15
  store double %16, ptr %6, align 8, !tbaa !4
  %17 = load ptr, ptr %9, align 8, !tbaa !30
  %18 = load ptr, ptr %10, align 8, !tbaa !55
  %.not.i = icmp eq ptr %17, %18
  br i1 %.not.i, label %23, label %19

19:                                               ; preds = %14
  %20 = load i32, ptr %5, align 4, !tbaa !8
  invoke void @_ZN3gmx20CorrelationBlockDataC2Eid(ptr noundef nonnull align 8 dereferenceable(96) %17, i32 noundef %20, double noundef %16)
          to label %.noexc13 unwind label %26

.noexc13:                                         ; preds = %19
  %21 = load ptr, ptr %9, align 8, !tbaa !30
  %22 = getelementptr inbounds nuw i8, ptr %21, i64 96
  store ptr %22, ptr %9, align 8, !tbaa !30
  br label %_ZNSt6vectorIN3gmx20CorrelationBlockDataESaIS1_EE12emplace_backIJRidEEERS1_DpOT_.exit

23:                                               ; preds = %14
  invoke void @_ZNSt6vectorIN3gmx20CorrelationBlockDataESaIS1_EE17_M_realloc_insertIJRidEEEvN9__gnu_cxx17__normal_iteratorIPS1_S3_EEDpOT_(ptr noundef nonnull align 8 dereferenceable(24) %0, ptr %17, ptr noundef nonnull align 4 dereferenceable(4) %5, ptr noundef nonnull align 8 dereferenceable(8) %6)
          to label %_ZNSt6vectorIN3gmx20CorrelationBlockDataESaIS1_EE12emplace_backIJRidEEERS1_DpOT_.exit unwind label %26

_ZNSt6vectorIN3gmx20CorrelationBlockDataESaIS1_EE12emplace_backIJRidEEERS1_DpOT_.exit: ; preds = %23, %.noexc13
  call void @llvm.lifetime.end.p0(i64 8, ptr nonnull %6) #19
  %24 = shl i32 %.01115, 1
  %25 = add nuw nsw i32 %.016, 1
  %exitcond.not = icmp eq i32 %25, %2
  br i1 %exitcond.not, label %._crit_edge, label %14, !llvm.loop !56

26:                                               ; preds = %23, %19
  %27 = landingpad { ptr, i32 }
          cleanup
  call void @llvm.lifetime.end.p0(i64 8, ptr nonnull %6) #19
  br label %28

28:                                               ; preds = %26, %12
  %.pn = phi { ptr, i32 } [ %27, %26 ], [ %13, %12 ]
  call void @_ZNSt6vectorIN3gmx20CorrelationBlockDataESaIS1_EED2Ev(ptr noundef nonnull align 8 dereferenceable(24) %0) #19
  resume { ptr, i32 } %.pn
}